; Function Attrs: nounwind uwtable
define hidden range(i32 0, 12803) i32 @_glfwGetEGLPlatformX11(ptr noundef writeonly captures(none) %0) local_unnamed_addr #0 {
  %2 = load i32, ptr getelementptr inbounds nuw (i8, ptr @_glfw, i64 133564), align 4, !tbaa !431
  %.not = icmp eq i32 %2, 0
  br i1 %.not, label %.thread, label %3

3:                                                ; preds = %1
  %4 = load i32, ptr getelementptr inbounds nuw (i8, ptr @_glfw, i64 133568), align 8, !tbaa !432
  %5 = icmp ne i32 %4, 0
  %6 = load i32, ptr getelementptr inbounds nuw (i8, ptr @_glfw, i64 620), align 4
  %7 = icmp eq i32 %6, 225282
  %or.cond3 = select i1 %5, i1 %7, i1 false
  %8 = load i32, ptr getelementptr inbounds nuw (i8, ptr @_glfw, i64 133576), align 8, !tbaa !433
  %9 = icmp ne i32 %8, 0
  %10 = icmp eq i32 %6, 225287
  %or.cond5 = select i1 %9, i1 %10, i1 false
  %.not16 = select i1 %or.cond5, i1 true, i1 %or.cond3
  br i1 %.not16, label %11, label %.thread

11:                                               ; preds = %3
  %spec.store.select = select i1 %or.cond3, i32 12813, i32 0
  %spec.store.select6 = select i1 %or.cond5, i32 13392, i32 %spec.store.select
  %12 = tail call ptr @_glfw_calloc(i64 noundef 5, i64 noundef 4) #17
  store ptr %12, ptr %0, align 8, !tbaa !358
  store i32 12803, ptr %12, align 4, !tbaa !183
  %13 = getelementptr inbounds nuw i8, ptr %12, i64 4
  store i32 %spec.store.select6, ptr %13, align 4, !tbaa !183
  %14 = getelementptr inbounds nuw i8, ptr %12, i64 8
  store i32 13455, ptr %14, align 4, !tbaa !183
  %15 = getelementptr inbounds nuw i8, ptr %12, i64 12
  store i32 12757, ptr %15, align 4, !tbaa !183
  %16 = getelementptr inbounds nuw i8, ptr %12, i64 16
  store i32 12344, ptr %16, align 4, !tbaa !183
  br label %21

.thread:                                          ; preds = %3, %1
  %17 = load i32, ptr getelementptr inbounds nuw (i8, ptr @_glfw, i64 133548), align 4, !tbaa !434
  %18 = icmp ne i32 %17, 0
  %19 = load i32, ptr getelementptr inbounds nuw (i8, ptr @_glfw, i64 133552), align 8
  %20 = icmp ne i32 %19, 0
  %or.cond = select i1 %18, i1 %20, i1 false
  %. = select i1 %or.cond, i32 12757, i32 0
  br label %21

21:                                               ; preds = %11, %.thread
  %.1 = phi i32 [ 12802, %11 ], [ %., %.thread ]
  ret i32 %.1
}